; Function Attrs: nounwind uwtable
define ptr @l_Std_Net_IPv4Addr_ofParts(i8 noundef zeroext %0, i8 noundef zeroext %1, i8 noundef zeroext %2, i8 noundef zeroext %3) local_unnamed_addr #0 {
  tail call void @lean_inc_heartbeat() #7
  %5 = tail call noalias ptr @mi_malloc_small(i64 noundef 24) #7
  %6 = icmp eq ptr %5, null
  br i1 %6, label %7, label %lean_alloc_ctor.exit

7:                                                ; preds = %4
  tail call void @lean_internal_panic_out_of_memory() #8
  unreachable

lean_alloc_ctor.exit:                             ; preds = %4
  %8 = zext i8 %3 to i64
  %9 = shl nuw nsw i64 %8, 1
  %10 = or disjoint i64 %9, 1
  %11 = inttoptr i64 %10 to ptr
  %12 = getelementptr inbounds nuw i8, ptr %5, i64 4
  store i32 1, ptr %5, align 4, !tbaa !8
  store i32 16908312, ptr %12, align 4
  %13 = getelementptr inbounds nuw i8, ptr %5, i64 8
  store ptr %11, ptr %13, align 8, !tbaa !4
  %14 = getelementptr inbounds nuw i8, ptr %5, i64 16
  store ptr inttoptr (i64 1 to ptr), ptr %14, align 8, !tbaa !4
  tail call void @lean_inc_heartbeat() #7
  %15 = tail call noalias ptr @mi_malloc_small(i64 noundef 24) #7
  %16 = icmp eq ptr %15, null
  br i1 %16, label %17, label %lean_alloc_ctor.exit21

17:                                               ; preds = %lean_alloc_ctor.exit
  tail call void @lean_internal_panic_out_of_memory() #8
  unreachable

lean_alloc_ctor.exit21:                           ; preds = %lean_alloc_ctor.exit
  %18 = zext i8 %2 to i64
  %19 = shl nuw nsw i64 %18, 1
  %20 = or disjoint i64 %19, 1
  %21 = inttoptr i64 %20 to ptr
  %22 = getelementptr inbounds nuw i8, ptr %15, i64 4
  store i32 1, ptr %15, align 4, !tbaa !8
  store i32 16908312, ptr %22, align 4
  %23 = getelementptr inbounds nuw i8, ptr %15, i64 8
  store ptr %21, ptr %23, align 8, !tbaa !4
  %24 = getelementptr inbounds nuw i8, ptr %15, i64 16
  store ptr %5, ptr %24, align 8, !tbaa !4
  tail call void @lean_inc_heartbeat() #7
  %25 = tail call noalias ptr @mi_malloc_small(i64 noundef 24) #7
  %26 = icmp eq ptr %25, null
  br i1 %26, label %27, label %lean_alloc_ctor.exit22

27:                                               ; preds = %lean_alloc_ctor.exit21
  tail call void @lean_internal_panic_out_of_memory() #8
  unreachable

lean_alloc_ctor.exit22:                           ; preds = %lean_alloc_ctor.exit21
  %28 = zext i8 %1 to i64
  %29 = shl nuw nsw i64 %28, 1
  %30 = or disjoint i64 %29, 1
  %31 = inttoptr i64 %30 to ptr
  %32 = getelementptr inbounds nuw i8, ptr %25, i64 4
  store i32 1, ptr %25, align 4, !tbaa !8
  store i32 16908312, ptr %32, align 4
  %33 = getelementptr inbounds nuw i8, ptr %25, i64 8
  store ptr %31, ptr %33, align 8, !tbaa !4
  %34 = getelementptr inbounds nuw i8, ptr %25, i64 16
  store ptr %15, ptr %34, align 8, !tbaa !4
  tail call void @lean_inc_heartbeat() #7
  %35 = tail call noalias ptr @mi_malloc_small(i64 noundef 24) #7
  %36 = icmp eq ptr %35, null
  br i1 %36, label %37, label %lean_alloc_ctor.exit23

37:                                               ; preds = %lean_alloc_ctor.exit22
  tail call void @lean_internal_panic_out_of_memory() #8
  unreachable

lean_alloc_ctor.exit23:                           ; preds = %lean_alloc_ctor.exit22
  %38 = zext i8 %0 to i64
  %39 = shl nuw nsw i64 %38, 1
  %40 = or disjoint i64 %39, 1
  %41 = inttoptr i64 %40 to ptr
  %42 = getelementptr inbounds nuw i8, ptr %35, i64 4
  store i32 1, ptr %35, align 4, !tbaa !8
  store i32 16908312, ptr %42, align 4
  %43 = getelementptr inbounds nuw i8, ptr %35, i64 8
  store ptr %41, ptr %43, align 8, !tbaa !4
  %44 = getelementptr inbounds nuw i8, ptr %35, i64 16
  store ptr %25, ptr %44, align 8, !tbaa !4
  %45 = tail call ptr @lean_array_mk(ptr noundef nonnull %35) #7
  ret ptr %45
}